; Function Attrs: mustprogress nounwind uwtable
define dso_local void @_ZN4base12SampleVectorD2Ev(ptr noundef nonnull align 8 dereferenceable(88) %this) unnamed_addr #3 align 2 personality ptr @__gxx_personality_v0 {
entry:
  store ptr getelementptr inbounds ({ [14 x ptr] }, ptr @_ZTVN4base12SampleVectorE, i64 0, i32 0, i64 2), ptr %this, align 8
  %local_counts_ = getelementptr inbounds i8, ptr %this, i64 40
  %0 = load ptr, ptr %local_counts_, align 8
  %tobool.not.i.i.i = icmp eq ptr %0, null
  br i1 %tobool.not.i.i.i, label %_ZNSt6vectorIiSaIiEED2Ev.exit, label %if.then.i.i.i

if.then.i.i.i:                                    ; preds = %entry
  tail call void @_ZdlPv(ptr noundef nonnull %0) #15
  br label %_ZNSt6vectorIiSaIiEED2Ev.exit

_ZNSt6vectorIiSaIiEED2Ev.exit:                    ; preds = %entry, %if.then.i.i.i
  tail call void @_ZN4base16HistogramSamplesD2Ev(ptr noundef nonnull align 8 dereferenceable(40) %this) #16
  ret void
}